target datalayout = "e-m:e-p270:32:32-p271:32:32-p272:64:64-i64:64-i128:128-f80:128-n8:16:32:64-S128"
target triple = "x86_64-pc-linux-gnu"

%struct.DepsLog = type { i8, ptr, %"class.std::__cxx11::basic_string", %"class.std::vector", %"class.std::vector.3" }
%"class.std::__cxx11::basic_string" = type { %"struct.std::__cxx11::basic_string<char>::_Alloc_hider", i64, %union.anon }
%"struct.std::__cxx11::basic_string<char>::_Alloc_hider" = type { ptr }
%union.anon = type { i64, [8 x i8] }
%"class.std::vector" = type { %"struct.std::_Vector_base" }
%"struct.std::_Vector_base" = type { %"struct.std::_Vector_base<Node *, std::allocator<Node *>>::_Vector_impl" }
%"struct.std::_Vector_base<Node *, std::allocator<Node *>>::_Vector_impl" = type { %"struct.std::_Vector_base<Node *, std::allocator<Node *>>::_Vector_impl_data" }
%"struct.std::_Vector_base<Node *, std::allocator<Node *>>::_Vector_impl_data" = type { ptr, ptr, ptr }
%"class.std::vector.3" = type { %"struct.std::_Vector_base.4" }
%"struct.std::_Vector_base.4" = type { %"struct.std::_Vector_base<DepsLog::Deps *, std::allocator<DepsLog::Deps *>>::_Vector_impl" }
%"struct.std::_Vector_base<DepsLog::Deps *, std::allocator<DepsLog::Deps *>>::_Vector_impl" = type { %"struct.std::_Vector_base<DepsLog::Deps *, std::allocator<DepsLog::Deps *>>::_Vector_impl_data" }
%"struct.std::_Vector_base<DepsLog::Deps *, std::allocator<DepsLog::Deps *>>::_Vector_impl_data" = type { ptr, ptr, ptr }

@_ZL14kFileSignature = internal constant [13 x i8] c"# ninjadeps\0A\00", align 1
@.str.10 = private unnamed_addr constant [3 x i8] c"ab\00", align 1
@_ZL15kCurrentVersion = internal constant i32 4, align 4

; Function Attrs: mustprogress nounwind uwtable
define linkonce_odr dso_local void @_ZNSt11char_traitsIcE6assignERcRKc(ptr noundef nonnull align 1 dereferenceable(1) %0, ptr noundef nonnull align 1 dereferenceable(1) %1) #0 comdat align 2 {
  %3 = alloca ptr, align 8
  %4 = alloca ptr, align 8
  store ptr %0, ptr %3, align 8, !tbaa !84
  store ptr %1, ptr %4, align 8, !tbaa !84
  %5 = load ptr, ptr %4, align 8, !tbaa !84
  %6 = load i8, ptr %5, align 1, !tbaa !82
  %7 = load ptr, ptr %3, align 8, !tbaa !84
  store i8 %6, ptr %7, align 1, !tbaa !82
  ret void
}

; Function Attrs: mustprogress nounwind uwtable
define available_externally void @_ZNSt7__cxx1112basic_stringIcSt11char_traitsIcESaIcEE9_M_lengthEm(ptr noundef nonnull align 8 dereferenceable(32) %0, i64 noundef %1) #0 align 2 {
  %3 = alloca ptr, align 8
  %4 = alloca i64, align 8
  store ptr %0, ptr %3, align 8, !tbaa !36
  store i64 %1, ptr %4, align 8, !tbaa !59
  %5 = load ptr, ptr %3, align 8
  %6 = load i64, ptr %4, align 8, !tbaa !59
  %7 = getelementptr inbounds nuw %"class.std::__cxx11::basic_string", ptr %5, i32 0, i32 1
  store i64 %6, ptr %7, align 8, !tbaa !101
  ret void
}

; Function Attrs: noinline noreturn nounwind uwtable
define linkonce_odr hidden void @__clang_call_terminate(ptr noundef %0) #2 comdat {
  %2 = call ptr @__cxa_begin_catch(ptr %0) #8
  call void @_ZSt9terminatev() #18
  unreachable
}

; Function Attrs: mustprogress uwtable
define available_externally void @_ZNSt7__cxx1112basic_stringIcSt11char_traitsIcESaIcEE13_M_set_lengthEm(ptr noundef nonnull align 8 dereferenceable(32) %0, i64 noundef %1) #1 align 2 {
  %3 = alloca ptr, align 8
  %4 = alloca i64, align 8
  %5 = alloca i8, align 1
  store ptr %0, ptr %3, align 8, !tbaa !36
  store i64 %1, ptr %4, align 8, !tbaa !59
  %6 = load ptr, ptr %3, align 8
  %7 = load i64, ptr %4, align 8, !tbaa !59
  call void @_ZNSt7__cxx1112basic_stringIcSt11char_traitsIcESaIcEE9_M_lengthEm(ptr noundef nonnull align 8 dereferenceable(32) %6, i64 noundef %7)
  %8 = call noundef ptr @_ZNKSt7__cxx1112basic_stringIcSt11char_traitsIcESaIcEE7_M_dataEv(ptr noundef nonnull align 8 dereferenceable(32) %6)
  %9 = load i64, ptr %4, align 8, !tbaa !59
  %10 = getelementptr inbounds nuw i8, ptr %8, i64 %9
  call void @llvm.lifetime.start.p0(i64 1, ptr %5) #8
  store i8 0, ptr %5, align 1, !tbaa !82
  call void @_ZNSt11char_traitsIcE6assignERcRKc(ptr noundef nonnull align 1 dereferenceable(1) %10, ptr noundef nonnull align 1 dereferenceable(1) %5) #8
  call void @llvm.lifetime.end.p0(i64 1, ptr %5) #8
  ret void
}

; Function Attrs: mustprogress nounwind uwtable
define available_externally noundef ptr @_ZNKSt7__cxx1112basic_stringIcSt11char_traitsIcESaIcEE7_M_dataEv(ptr noundef nonnull align 8 dereferenceable(32) %0) #0 align 2 {
  %2 = alloca ptr, align 8
  store ptr %0, ptr %2, align 8, !tbaa !36
  %3 = load ptr, ptr %2, align 8
  %4 = getelementptr inbounds nuw %"class.std::__cxx11::basic_string", ptr %3, i32 0, i32 0
  %5 = getelementptr inbounds nuw %"struct.std::__cxx11::basic_string<char>::_Alloc_hider", ptr %4, i32 0, i32 0
  %6 = load ptr, ptr %5, align 8, !tbaa !107
  ret ptr %6
}

; Function Attrs: mustprogress nounwind uwtable
define available_externally noundef i64 @_ZNKSt7__cxx1112basic_stringIcSt11char_traitsIcESaIcEE4sizeEv(ptr noundef nonnull align 8 dereferenceable(32) %0) #0 align 2 {
  %2 = alloca ptr, align 8
  store ptr %0, ptr %2, align 8, !tbaa !36
  %3 = load ptr, ptr %2, align 8
  %4 = getelementptr inbounds nuw %"class.std::__cxx11::basic_string", ptr %3, i32 0, i32 1
  %5 = load i64, ptr %4, align 8, !tbaa !101
  ret i64 %5
}

; Function Attrs: mustprogress nounwind uwtable
define available_externally void @_ZNSt7__cxx1112basic_stringIcSt11char_traitsIcESaIcEE5clearEv(ptr noundef nonnull align 8 dereferenceable(32) %0) #0 align 2 personality ptr @__gxx_personality_v0 {
  %2 = alloca ptr, align 8
  store ptr %0, ptr %2, align 8, !tbaa !36
  %3 = load ptr, ptr %2, align 8
  invoke void @_ZNSt7__cxx1112basic_stringIcSt11char_traitsIcESaIcEE13_M_set_lengthEm(ptr noundef nonnull align 8 dereferenceable(32) %3, i64 noundef 0)
          to label %4 unwind label %5

4:                                                ; preds = %1
  ret void

5:                                                ; preds = %1
  %6 = landingpad { ptr, i32 }
          catch ptr null
  %7 = extractvalue { ptr, i32 } %6, 0
  call void @__clang_call_terminate(ptr %7) #18
  unreachable
}

; Function Attrs: mustprogress nounwind uwtable
define available_externally noundef ptr @_ZNKSt7__cxx1112basic_stringIcSt11char_traitsIcESaIcEE5c_strEv(ptr noundef nonnull align 8 dereferenceable(32) %0) #0 align 2 {
  %2 = alloca ptr, align 8
  store ptr %0, ptr %2, align 8, !tbaa !36
  %3 = load ptr, ptr %2, align 8
  %4 = call noundef ptr @_ZNKSt7__cxx1112basic_stringIcSt11char_traitsIcESaIcEE7_M_dataEv(ptr noundef nonnull align 8 dereferenceable(32) %3)
  ret ptr %4
}

; Function Attrs: mustprogress nounwind uwtable
define available_externally noundef zeroext i1 @_ZNKSt7__cxx1112basic_stringIcSt11char_traitsIcESaIcEE5emptyEv(ptr noundef nonnull align 8 dereferenceable(32) %0) #0 align 2 {
  %2 = alloca ptr, align 8
  store ptr %0, ptr %2, align 8, !tbaa !36
  %3 = load ptr, ptr %2, align 8
  %4 = call noundef i64 @_ZNKSt7__cxx1112basic_stringIcSt11char_traitsIcESaIcEE4sizeEv(ptr noundef nonnull align 8 dereferenceable(32) %3) #8
  %5 = icmp eq i64 %4, 0
  ret i1 %5
}

; Function Attrs: mustprogress uwtable
define dso_local noundef zeroext i1 @_ZN7DepsLog20OpenForWriteIfNeededEv(ptr noundef nonnull align 8 dereferenceable(96) %0) #1 align 2 {
  %2 = alloca i1, align 1
  %3 = alloca ptr, align 8
  store ptr %0, ptr %3, align 8, !tbaa !4
  %4 = load ptr, ptr %3, align 8
  %5 = getelementptr inbounds nuw %struct.DepsLog, ptr %4, i32 0, i32 2
  %6 = call noundef zeroext i1 @_ZNKSt7__cxx1112basic_stringIcSt11char_traitsIcESaIcEE5emptyEv(ptr noundef nonnull align 8 dereferenceable(32) %5) #8
  br i1 %6, label %7, label %8

7:                                                ; preds = %1
  store i1 true, ptr %2, align 1
  br label %55

8:                                                ; preds = %1
  %9 = getelementptr inbounds nuw %struct.DepsLog, ptr %4, i32 0, i32 2
  %10 = call noundef ptr @_ZNKSt7__cxx1112basic_stringIcSt11char_traitsIcESaIcEE5c_strEv(ptr noundef nonnull align 8 dereferenceable(32) %9) #8
  %11 = call noalias ptr @fopen(ptr noundef %10, ptr noundef @.str.10)
  %12 = getelementptr inbounds nuw %struct.DepsLog, ptr %4, i32 0, i32 1
  store ptr %11, ptr %12, align 8, !tbaa !9
  %13 = getelementptr inbounds nuw %struct.DepsLog, ptr %4, i32 0, i32 1
  %14 = load ptr, ptr %13, align 8, !tbaa !9
  %15 = icmp ne ptr %14, null
  br i1 %15, label %17, label %16

16:                                               ; preds = %8
  store i1 false, ptr %2, align 1
  br label %55

17:                                               ; preds = %8
  %18 = getelementptr inbounds nuw %struct.DepsLog, ptr %4, i32 0, i32 1
  %19 = load ptr, ptr %18, align 8, !tbaa !9
  %20 = call i32 @setvbuf(ptr noundef %19, ptr noundef null, i32 noundef 0, i64 noundef 524288) #8
  %21 = icmp ne i32 %20, 0
  br i1 %21, label %22, label %23

22:                                               ; preds = %17
  store i1 false, ptr %2, align 1
  br label %55

23:                                               ; preds = %17
  %24 = getelementptr inbounds nuw %struct.DepsLog, ptr %4, i32 0, i32 1
  %25 = load ptr, ptr %24, align 8, !tbaa !9
  %26 = call i32 @fileno(ptr noundef %25) #8
  call void @_Z14SetCloseOnExeci(i32 noundef %26)
  %27 = getelementptr inbounds nuw %struct.DepsLog, ptr %4, i32 0, i32 1
  %28 = load ptr, ptr %27, align 8, !tbaa !9
  %29 = call i32 @fseek(ptr noundef %28, i64 noundef 0, i32 noundef 2)
  %30 = getelementptr inbounds nuw %struct.DepsLog, ptr %4, i32 0, i32 1
  %31 = load ptr, ptr %30, align 8, !tbaa !9
  %32 = call i64 @ftell(ptr noundef %31)
  %33 = icmp eq i64 %32, 0
  br i1 %33, label %34, label %47

34:                                               ; preds = %23
  %35 = getelementptr inbounds nuw %struct.DepsLog, ptr %4, i32 0, i32 1
  %36 = load ptr, ptr %35, align 8, !tbaa !9
  %37 = call i64 @fwrite(ptr noundef @_ZL14kFileSignature, i64 noundef 12, i64 noundef 1, ptr noundef %36)
  %38 = icmp ult i64 %37, 1
  br i1 %38, label %39, label %40

39:                                               ; preds = %34
  store i1 false, ptr %2, align 1
  br label %55

40:                                               ; preds = %34
  %41 = getelementptr inbounds nuw %struct.DepsLog, ptr %4, i32 0, i32 1
  %42 = load ptr, ptr %41, align 8, !tbaa !9
  %43 = call i64 @fwrite(ptr noundef @_ZL15kCurrentVersion, i64 noundef 4, i64 noundef 1, ptr noundef %42)
  %44 = icmp ult i64 %43, 1
  br i1 %44, label %45, label %46

45:                                               ; preds = %40
  store i1 false, ptr %2, align 1
  br label %55

46:                                               ; preds = %40
  br label %47

47:                                               ; preds = %46, %23
  %48 = getelementptr inbounds nuw %struct.DepsLog, ptr %4, i32 0, i32 1
  %49 = load ptr, ptr %48, align 8, !tbaa !9
  %50 = call i32 @fflush(ptr noundef %49)
  %51 = icmp ne i32 %50, 0
  br i1 %51, label %52, label %53

52:                                               ; preds = %47
  store i1 false, ptr %2, align 1
  br label %55

53:                                               ; preds = %47
  %54 = getelementptr inbounds nuw %struct.DepsLog, ptr %4, i32 0, i32 2
  call void @_ZNSt7__cxx1112basic_stringIcSt11char_traitsIcESaIcEE5clearEv(ptr noundef nonnull align 8 dereferenceable(32) %54) #8
  store i1 true, ptr %2, align 1
  br label %55

55:                                               ; preds = %53, %52, %45, %39, %22, %16, %7
  %56 = load i1, ptr %2, align 1
  ret i1 %56
}