; Function Attrs: mustprogress uwtable
define dso_local noundef zeroext i1 @_ZN7DepsLog20OpenForWriteIfNeededEv(ptr noundef nonnull align 8 captures(none) dereferenceable(96) %0) local_unnamed_addr #1 align 2 personality ptr @__gxx_personality_v0 {
  %2 = getelementptr inbounds nuw i8, ptr %0, i64 16
  %3 = getelementptr inbounds nuw i8, ptr %0, i64 24
  %4 = load i64, ptr %3, align 8, !tbaa !31
  %5 = icmp eq i64 %4, 0
  br i1 %5, label %33, label %6

6:                                                ; preds = %1
  %7 = load ptr, ptr %2, align 8, !tbaa !30
  %8 = tail call noalias ptr @fopen(ptr noundef %7, ptr noundef nonnull @.str.10)
  %9 = getelementptr inbounds nuw i8, ptr %0, i64 8
  store ptr %8, ptr %9, align 8, !tbaa !4
  %.not = icmp eq ptr %8, null
  br i1 %.not, label %33, label %10

10:                                               ; preds = %6
  %11 = tail call i32 @setvbuf(ptr noundef nonnull %8, ptr noundef null, i32 noundef 0, i64 noundef 524288) #24
  %.not3 = icmp eq i32 %11, 0
  br i1 %.not3, label %12, label %33

12:                                               ; preds = %10
  %13 = load ptr, ptr %9, align 8, !tbaa !4
  %14 = tail call i32 @fileno(ptr noundef %13) #24
  tail call void @_Z14SetCloseOnExeci(i32 noundef %14)
  %15 = load ptr, ptr %9, align 8, !tbaa !4
  %16 = tail call i32 @fseek(ptr noundef %15, i64 noundef 0, i32 noundef 2)
  %17 = load ptr, ptr %9, align 8, !tbaa !4
  %18 = tail call i64 @ftell(ptr noundef %17)
  %19 = icmp eq i64 %18, 0
  br i1 %19, label %20, label %28

20:                                               ; preds = %12
  %21 = load ptr, ptr %9, align 8, !tbaa !4
  %22 = tail call i64 @fwrite(ptr noundef nonnull @_ZL14kFileSignature, i64 noundef 12, i64 noundef 1, ptr noundef %21)
  %23 = icmp eq i64 %22, 0
  br i1 %23, label %33, label %24

24:                                               ; preds = %20
  %25 = load ptr, ptr %9, align 8, !tbaa !4
  %26 = tail call i64 @fwrite(ptr noundef nonnull @_ZL15kCurrentVersion, i64 noundef 4, i64 noundef 1, ptr noundef %25)
  %27 = icmp eq i64 %26, 0
  br i1 %27, label %33, label %28

28:                                               ; preds = %24, %12
  %29 = load ptr, ptr %9, align 8, !tbaa !4
  %30 = tail call i32 @fflush(ptr noundef %29)
  %.not4 = icmp eq i32 %30, 0
  br i1 %.not4, label %31, label %33

31:                                               ; preds = %28
  store i64 0, ptr %3, align 8, !tbaa !31
  %32 = load ptr, ptr %2, align 8, !tbaa !30
  store i8 0, ptr %32, align 1, !tbaa !32
  br label %33

33:                                               ; preds = %28, %24, %20, %10, %6, %1, %31
  %.0 = phi i1 [ true, %31 ], [ true, %1 ], [ false, %6 ], [ false, %10 ], [ false, %20 ], [ false, %24 ], [ false, %28 ]
  ret i1 %.0
}